target datalayout = "e-m:e-p270:32:32-p271:32:32-p272:64:64-i64:64-i128:128-f80:128-n8:16:32:64-S128"
target triple = "x86_64-pc-linux-gnu"

%struct._MRIStepInnerStepper = type { ptr, ptr, ptr, ptr, i32, i32, i32, double, double, ptr, ptr, i64, i64, i64, i64 }
%struct._MRIStepInnerStepper_Ops = type { ptr, ptr, ptr, ptr, ptr, ptr }

@.str = private unnamed_addr constant [123 x i8] c"generated/home/dtcxzyw/WorkSpace/Projects/compilers/llvm-opt-benchmark/bench/sundials/sundials/src/arkode/arkode_mristep.c\00", align 1
@.str.96 = private unnamed_addr constant [29 x i8] c"Inner stepper memory is NULL\00", align 1
@__func__.MRIStepInnerStepper_SetEvolveFn = private unnamed_addr constant [32 x i8] c"MRIStepInnerStepper_SetEvolveFn\00", align 1
@.str.97 = private unnamed_addr constant [43 x i8] c"Inner stepper operations structure is NULL\00", align 1

; Function Attrs: nounwind uwtable
define i32 @MRIStepInnerStepper_SetEvolveFn(ptr noundef %0, ptr noundef %1) #0 {
  %3 = alloca i32, align 4
  %4 = alloca ptr, align 8
  %5 = alloca ptr, align 8
  store ptr %0, ptr %4, align 8, !tbaa !11
  store ptr %1, ptr %5, align 8, !tbaa !3
  %6 = load ptr, ptr %4, align 8, !tbaa !11
  %7 = icmp eq ptr %6, null
  br i1 %7, label %8, label %9

8:                                                ; preds = %2
  call void (ptr, i32, i32, ptr, ptr, ptr, ...) @arkProcessError(ptr noundef null, i32 noundef -22, i32 noundef 4361, ptr noundef @__func__.MRIStepInnerStepper_SetEvolveFn, ptr noundef @.str, ptr noundef @.str.96)
  store i32 -22, ptr %3, align 4
  br label %21

9:                                                ; preds = %2
  %10 = load ptr, ptr %4, align 8, !tbaa !11
  %11 = getelementptr inbounds nuw %struct._MRIStepInnerStepper, ptr %10, i32 0, i32 1
  %12 = load ptr, ptr %11, align 8, !tbaa !173
  %13 = icmp eq ptr %12, null
  br i1 %13, label %14, label %15

14:                                               ; preds = %9
  call void (ptr, i32, i32, ptr, ptr, ptr, ...) @arkProcessError(ptr noundef null, i32 noundef -22, i32 noundef 4368, ptr noundef @__func__.MRIStepInnerStepper_SetEvolveFn, ptr noundef @.str, ptr noundef @.str.97)
  store i32 -22, ptr %3, align 4
  br label %21

15:                                               ; preds = %9
  %16 = load ptr, ptr %5, align 8, !tbaa !3
  %17 = load ptr, ptr %4, align 8, !tbaa !11
  %18 = getelementptr inbounds nuw %struct._MRIStepInnerStepper, ptr %17, i32 0, i32 1
  %19 = load ptr, ptr %18, align 8, !tbaa !173
  %20 = getelementptr inbounds nuw %struct._MRIStepInnerStepper_Ops, ptr %19, i32 0, i32 0
  store ptr %16, ptr %20, align 8, !tbaa !219
  store i32 0, ptr %3, align 4
  br label %21

21:                                               ; preds = %15, %14, %8
  %22 = load i32, ptr %3, align 4
  ret i32 %22
}